target datalayout = "e-m:e-p270:32:32-p271:32:32-p272:64:64-i64:64-i128:128-f80:128-n8:16:32:64-S128"
target triple = "x86_64-unknown-linux-gnu"

%"class.icu_75::UVector" = type { %"class.icu_75::UObject", i32, i32, ptr, ptr, ptr }
%"class.icu_75::UObject" = type { ptr }
%union.UElement = type { ptr }

; Function Attrs: mustprogress uwtable
define void @_ZN6icu_757UVector12setElementAtEPvi(ptr noundef nonnull align 8 dereferenceable(40) %this, ptr noundef %obj, i32 noundef %index) #1 align 2 {
entry:
  %this.addr = alloca ptr, align 8
  %obj.addr = alloca ptr, align 8
  %index.addr = alloca i32, align 4
  store ptr %this, ptr %this.addr, align 8
  store ptr %obj, ptr %obj.addr, align 8
  store i32 %index, ptr %index.addr, align 4
  %this1 = load ptr, ptr %this.addr, align 8
  %0 = load i32, ptr %index.addr, align 4
  %cmp = icmp sle i32 0, %0
  br i1 %cmp, label %land.lhs.true, label %if.else

land.lhs.true:                                    ; preds = %entry
  %1 = load i32, ptr %index.addr, align 4
  %count = getelementptr inbounds %"class.icu_75::UVector", ptr %this1, i32 0, i32 1
  %2 = load i32, ptr %count, align 8
  %cmp2 = icmp slt i32 %1, %2
  br i1 %cmp2, label %if.then, label %if.else

if.then:                                          ; preds = %land.lhs.true
  %elements = getelementptr inbounds %"class.icu_75::UVector", ptr %this1, i32 0, i32 3
  %3 = load ptr, ptr %elements, align 8
  %4 = load i32, ptr %index.addr, align 4
  %idxprom = sext i32 %4 to i64
  %arrayidx = getelementptr inbounds %union.UElement, ptr %3, i64 %idxprom
  %5 = load ptr, ptr %arrayidx, align 8
  %cmp3 = icmp ne ptr %5, null
  br i1 %cmp3, label %land.lhs.true4, label %if.end

land.lhs.true4:                                   ; preds = %if.then
  %deleter = getelementptr inbounds %"class.icu_75::UVector", ptr %this1, i32 0, i32 4
  %6 = load ptr, ptr %deleter, align 8
  %cmp5 = icmp ne ptr %6, null
  br i1 %cmp5, label %if.then6, label %if.end

if.then6:                                         ; preds = %land.lhs.true4
  %deleter7 = getelementptr inbounds %"class.icu_75::UVector", ptr %this1, i32 0, i32 4
  %7 = load ptr, ptr %deleter7, align 8
  %elements8 = getelementptr inbounds %"class.icu_75::UVector", ptr %this1, i32 0, i32 3
  %8 = load ptr, ptr %elements8, align 8
  %9 = load i32, ptr %index.addr, align 4
  %idxprom9 = sext i32 %9 to i64
  %arrayidx10 = getelementptr inbounds %union.UElement, ptr %8, i64 %idxprom9
  %10 = load ptr, ptr %arrayidx10, align 8
  call void %7(ptr noundef %10)
  br label %if.end

if.end:                                           ; preds = %if.then6, %land.lhs.true4, %if.then
  %11 = load ptr, ptr %obj.addr, align 8
  %elements11 = getelementptr inbounds %"class.icu_75::UVector", ptr %this1, i32 0, i32 3
  %12 = load ptr, ptr %elements11, align 8
  %13 = load i32, ptr %index.addr, align 4
  %idxprom12 = sext i32 %13 to i64
  %arrayidx13 = getelementptr inbounds %union.UElement, ptr %12, i64 %idxprom12
  store ptr %11, ptr %arrayidx13, align 8
  br label %if.end19

if.else:                                          ; preds = %land.lhs.true, %entry
  %deleter14 = getelementptr inbounds %"class.icu_75::UVector", ptr %this1, i32 0, i32 4
  %14 = load ptr, ptr %deleter14, align 8
  %cmp15 = icmp ne ptr %14, null
  br i1 %cmp15, label %if.then16, label %if.end18

if.then16:                                        ; preds = %if.else
  %deleter17 = getelementptr inbounds %"class.icu_75::UVector", ptr %this1, i32 0, i32 4
  %15 = load ptr, ptr %deleter17, align 8
  %16 = load ptr, ptr %obj.addr, align 8
  call void %15(ptr noundef %16)
  br label %if.end18

if.end18:                                         ; preds = %if.then16, %if.else
  br label %if.end19

if.end19:                                         ; preds = %if.end18, %if.end
  ret void
}