; Function Attrs: mustprogress uwtable
define void @_ZN6icu_757UVector12setElementAtEPvi(ptr nocapture noundef nonnull readonly align 8 dereferenceable(40) %this, ptr noundef %obj, i32 noundef %index) local_unnamed_addr #1 align 2 {
entry:
  %cmp = icmp sgt i32 %index, -1
  %count = getelementptr inbounds i8, ptr %this, i64 8
  %0 = load i32, ptr %count, align 8
  %cmp2 = icmp sgt i32 %0, %index
  %or.cond = select i1 %cmp, i1 %cmp2, i1 false
  br i1 %or.cond, label %if.then, label %if.else

if.then:                                          ; preds = %entry
  %elements = getelementptr inbounds i8, ptr %this, i64 16
  %1 = load ptr, ptr %elements, align 8
  %idxprom = zext nneg i32 %index to i64
  %arrayidx = getelementptr inbounds %union.UElement, ptr %1, i64 %idxprom
  %2 = load ptr, ptr %arrayidx, align 8
  %cmp3.not = icmp eq ptr %2, null
  br i1 %cmp3.not, label %if.end, label %land.lhs.true4

land.lhs.true4:                                   ; preds = %if.then
  %deleter = getelementptr inbounds i8, ptr %this, i64 24
  %3 = load ptr, ptr %deleter, align 8
  %cmp5.not = icmp eq ptr %3, null
  br i1 %cmp5.not, label %if.end, label %if.then6

if.then6:                                         ; preds = %land.lhs.true4
  tail call void %3(ptr noundef nonnull %2)
  %.pre = load ptr, ptr %elements, align 8
  br label %if.end

if.end:                                           ; preds = %if.then6, %land.lhs.true4, %if.then
  %4 = phi ptr [ %.pre, %if.then6 ], [ %1, %land.lhs.true4 ], [ %1, %if.then ]
  %arrayidx13 = getelementptr inbounds %union.UElement, ptr %4, i64 %idxprom
  store ptr %obj, ptr %arrayidx13, align 8
  br label %if.end19

if.else:                                          ; preds = %entry
  %deleter14 = getelementptr inbounds i8, ptr %this, i64 24
  %5 = load ptr, ptr %deleter14, align 8
  %cmp15.not = icmp eq ptr %5, null
  br i1 %cmp15.not, label %if.end19, label %if.then16

if.then16:                                        ; preds = %if.else
  tail call void %5(ptr noundef %obj)
  br label %if.end19

if.end19:                                         ; preds = %if.else, %if.then16, %if.end
  ret void
}